(dp1
I0
ccopy_reg
_reconstructor
p2
(ctfdeploy
Tensor
p3
c__builtin__
object
p4
NtRp5
(dp6
S'value_index'
p7
I0
sS'last_uuid'
p8
NsS'name'
p9
Voutput:0
p10
sS'value'
p11
NsS'op'
p12
g2
(ctfdeploy
Mean
p13
g4
NtRp14
(dp15
S'inputs'
p16
(g2
(g3
g4
NtRp17
(dp18
g7
I0
sg8
Nsg9
VRelu:0
p19
sg11
Nsg12
g2
(ctfdeploy
Relu
p20
g4
NtRp21
(dp22
g16
(g2
(g3
g4
NtRp23
(dp24
g7
I0
sg8
Nsg9
Vadd:0
p25
sg11
Nsg12
g2
(ctfdeploy
Add
p26
g4
NtRp27
(dp28
g16
(g2
(g3
g4
NtRp29
(dp30
g7
I0
sg8
Nsg9
VMatMul:0
p31
sg11
Nsg12
g2
(ctfdeploy
MatMul
p32
g4
NtRp33
(dp34
g16
(g2
(g3
g4
NtRp35
(dp36
g7
I0
sg8
Nsg9
Vinput:0
p37
sg11
Nsg12
Nsbg2
(g3
g4
NtRp38
(dp39
g7
I0
sg8
Nsg9
VVariable/read:0
p40
sg11
Nsg12
g2
(ctfdeploy
Identity
p41
g4
NtRp42
(dp43
g16
(g2
(g3
g4
NtRp44
(dp45
g7
I0
sg8
Nsg9
VVariable:0
p46
sg11
cnumpy.core.multiarray
_reconstruct
p47
(cnumpy
ndarray
p48
(I0
tS'b'
tRp49
(I1
(I3
I10
tcnumpy
dtype
p50
(S'f4'
I0
I1
tRp51
(I3
S'<'
NNNI-1
I-1
I0
tbI00
S"\x05\xb7\x08=\x93\x14\x8b=\xdb\x94\xcc<\x18\xfd\xfd;e\xb0\xe0\xbb\x8a\xcf\x05\xbd\xf5\x9e\x8a\xbd\x9e\x96'\xbc\xaf\xfbU<1*\xba\xbc\x11\xba\xa9<\x089\xfe\xbb\xf6Z\xb3=\x1a\xb5,\xbd\xd7\x00\xe8<\xa3\xdd^=\x05\xf5\xd9\xbcT+\x95\xbc:\x1d\xe4<2$\t<\xd7\xb2M\xbb\xff{\xfd<\x9f\xbdH\xbd9\xe2\x03;;?\x82=\xe0\x0f\xa4=W\xefp\xbd\x8e\xf6G\xbd\x82\x9b\xf0<\x81\xc0\x80<"
tbsg12
Nsbtp52
sg9
VVariable/read
p53
sg8
NsS'output_dtypes'
p54
(lp55
cnumpy
float32
p56
asg11
NsS'kwargs'
p57
(lp58
sbsbtp59
sg9
VMatMul
p60
sg8
Nsg54
(lp61
g56
asg11
Nsg57
(lp62
I00
aI00
asbsbg2
(g3
g4
NtRp63
(dp64
g7
I0
sg8
Nsg9
VVariable_1/read:0
p65
sg11
Nsg12
g2
(g41
g4
NtRp66
(dp67
g16
(g2
(g3
g4
NtRp68
(dp69
g7
I0
sg8
Nsg9
VVariable_1:0
p70
sg11
g47
(g48
(I0
tS'b'
tRp71
(I1
(I10
tg51
I00
S'\x00\x00\x00\x00\x00\x00\x00\x00\x00\x00\x00\x00\x00\x00\x00\x00\x00\x00\x00\x00\x00\x00\x00\x00\x00\x00\x00\x00\x00\x00\x00\x00\x00\x00\x00\x00\x00\x00\x00\x00'
tbsg12
Nsbtp72
sg9
VVariable_1/read
p73
sg8
Nsg54
(lp74
g56
asg11
Nsg57
(lp75
sbsbtp76
sg9
Vadd
p77
sg8
Nsg54
(lp78
g56
asg11
Nsg57
(lp79
sbsbtp80
sg9
VRelu
p81
sg8
Nsg54
(lp82
g56
asg11
Nsg57
(lp83
sbsbg2
(g3
g4
NtRp84
(dp85
g7
I0
sg8
Nsg9
Vrange:0
p86
sg11
Nsg12
g2
(ctfdeploy
Range
p87
g4
NtRp88
(dp89
g16
(g2
(g3
g4
NtRp90
(dp91
g7
I0
sg8
Nsg9
Vrange/start:0
p92
sg11
cnumpy.core.multiarray
scalar
p93
(g50
(S'i4'
I0
I1
tRp94
(I3
S'<'
NNNI-1
I-1
I0
tbS'\x00\x00\x00\x00'
tRp95
sg12
Nsbg2
(g3
g4
NtRp96
(dp97
g7
I0
sg8
Nsg9
VRank:0
p98
sg11
Nsg12
g2
(ctfdeploy
Rank
p99
g4
NtRp100
(dp101
g16
(g17
tp102
sg9
VRank
p103
sg8
Nsg54
(lp104
cnumpy
int32
p105
asg11
Nsg57
(lp106
sbsbg2
(g3
g4
NtRp107
(dp108
g7
I0
sg8
Nsg9
Vrange/delta:0
p109
sg11
g93
(g94
S'\x01\x00\x00\x00'
tRp110
sg12
Nsbtp111
sg9
Vrange
p112
sg8
Nsg54
(lp113
g105
asg11
Nsg57
(lp114
sbsbtp115
sg9
Voutput
p116
sg8
Nsg54
(lp117
g56
asg11
Nsg57
(lp118
I00
asbsbs.